target datalayout = "e-m:e-p270:32:32-p271:32:32-p272:64:64-i64:64-i128:128-f80:128-n8:16:32:64-S128"
target triple = "x86_64-pc-linux-gnu"

; Function Attrs: nounwind uwtable
define internal i64 @get_line(ptr noundef %0, i64 noundef %1, ptr noundef %2) #0 {
  %4 = alloca i64, align 8
  %5 = alloca ptr, align 8
  %6 = alloca i64, align 8
  %7 = alloca ptr, align 8
  %8 = alloca i64, align 8
  %9 = alloca i32, align 4
  store ptr %0, ptr %5, align 8, !tbaa !15
  store i64 %1, ptr %6, align 8, !tbaa !19
  store ptr %2, ptr %7, align 8, !tbaa !45
  call void @llvm.lifetime.start.p0(i64 8, ptr %8) #8
  store i64 0, ptr %8, align 8, !tbaa !19
  br label %10

10:                                               ; preds = %60, %3
  %11 = load i64, ptr %8, align 8, !tbaa !19
  %12 = load i64, ptr %6, align 8, !tbaa !19
  %13 = icmp slt i64 %11, %12
  br i1 %13, label %14, label %61

14:                                               ; preds = %10
  %15 = load ptr, ptr %5, align 8, !tbaa !15
  %16 = load i8, ptr %15, align 1, !tbaa !21
  %17 = zext i8 %16 to i64
  %18 = getelementptr inbounds nuw [256 x i8], ptr @ascii, i64 0, i64 %17
  %19 = load i8, ptr %18, align 1, !tbaa !21
  %20 = zext i8 %19 to i32
  switch i32 %20, label %60 [
    i32 0, label %21
    i32 13, label %27
    i32 10, label %47
    i32 1, label %55
  ]

21:                                               ; preds = %14
  %22 = load ptr, ptr %7, align 8, !tbaa !45
  %23 = icmp ne ptr %22, null
  br i1 %23, label %24, label %26

24:                                               ; preds = %21
  %25 = load ptr, ptr %7, align 8, !tbaa !45
  store i64 0, ptr %25, align 8, !tbaa !19
  br label %26

26:                                               ; preds = %24, %21
  store i64 -1, ptr %4, align 8
  store i32 1, ptr %9, align 4
  br label %68

27:                                               ; preds = %14
  %28 = load i64, ptr %6, align 8, !tbaa !19
  %29 = load i64, ptr %8, align 8, !tbaa !19
  %30 = sub nsw i64 %28, %29
  %31 = icmp sgt i64 %30, 1
  br i1 %31, label %32, label %46

32:                                               ; preds = %27
  %33 = load ptr, ptr %5, align 8, !tbaa !15
  %34 = getelementptr inbounds i8, ptr %33, i64 1
  %35 = load i8, ptr %34, align 1, !tbaa !21
  %36 = zext i8 %35 to i32
  %37 = icmp eq i32 %36, 10
  br i1 %37, label %38, label %46

38:                                               ; preds = %32
  %39 = load ptr, ptr %7, align 8, !tbaa !45
  %40 = icmp ne ptr %39, null
  br i1 %40, label %41, label %43

41:                                               ; preds = %38
  %42 = load ptr, ptr %7, align 8, !tbaa !45
  store i64 2, ptr %42, align 8, !tbaa !19
  br label %43

43:                                               ; preds = %41, %38
  %44 = load i64, ptr %8, align 8, !tbaa !19
  %45 = add nsw i64 %44, 2
  store i64 %45, ptr %4, align 8
  store i32 1, ptr %9, align 4
  br label %68

46:                                               ; preds = %32, %27
  br label %47

47:                                               ; preds = %14, %46
  %48 = load ptr, ptr %7, align 8, !tbaa !45
  %49 = icmp ne ptr %48, null
  br i1 %49, label %50, label %52

50:                                               ; preds = %47
  %51 = load ptr, ptr %7, align 8, !tbaa !45
  store i64 1, ptr %51, align 8, !tbaa !19
  br label %52

52:                                               ; preds = %50, %47
  %53 = load i64, ptr %8, align 8, !tbaa !19
  %54 = add nsw i64 %53, 1
  store i64 %54, ptr %4, align 8
  store i32 1, ptr %9, align 4
  br label %68

55:                                               ; preds = %14
  %56 = load ptr, ptr %5, align 8, !tbaa !15
  %57 = getelementptr inbounds nuw i8, ptr %56, i32 1
  store ptr %57, ptr %5, align 8, !tbaa !15
  %58 = load i64, ptr %8, align 8, !tbaa !19
  %59 = add nsw i64 %58, 1
  store i64 %59, ptr %8, align 8, !tbaa !19
  br label %60

60:                                               ; preds = %14, %55
  br label %10, !llvm.loop !48

61:                                               ; preds = %10
  %62 = load ptr, ptr %7, align 8, !tbaa !45
  %63 = icmp ne ptr %62, null
  br i1 %63, label %64, label %66

64:                                               ; preds = %61
  %65 = load ptr, ptr %7, align 8, !tbaa !45
  store i64 0, ptr %65, align 8, !tbaa !19
  br label %66

66:                                               ; preds = %64, %61
  %67 = load i64, ptr %6, align 8, !tbaa !19
  store i64 %67, ptr %4, align 8
  store i32 1, ptr %9, align 4
  br label %68

68:                                               ; preds = %66, %52, %43, %26
  call void @llvm.lifetime.end.p0(i64 8, ptr %8) #8
  %69 = load i64, ptr %4, align 8
  ret i64 %69
}

; Function Attrs: nounwind uwtable
define internal i64 @bid_get_line(ptr noundef %0, ptr noundef %1, ptr noundef %2, ptr noundef %3, ptr noundef %4, ptr noundef %5) #0 {
  %7 = alloca i64, align 8
  %8 = alloca ptr, align 8
  %9 = alloca ptr, align 8
  %10 = alloca ptr, align 8
  %11 = alloca ptr, align 8
  %12 = alloca ptr, align 8
  %13 = alloca ptr, align 8
  %14 = alloca i64, align 8
  %15 = alloca i32, align 4
  %16 = alloca i64, align 8
  %17 = alloca i64, align 8
  %18 = alloca i64, align 8
  %19 = alloca i32, align 4
  store ptr %0, ptr %8, align 8, !tbaa !13
  store ptr %1, ptr %9, align 8, !tbaa !43
  store ptr %2, ptr %10, align 8, !tbaa !45
  store ptr %3, ptr %11, align 8, !tbaa !45
  store ptr %4, ptr %12, align 8, !tbaa !45
  store ptr %5, ptr %13, align 8, !tbaa !45
  call void @llvm.lifetime.start.p0(i64 8, ptr %14) #8
  call void @llvm.lifetime.start.p0(i64 4, ptr %15) #8
  store i32 0, ptr %15, align 4, !tbaa !17
  %20 = load ptr, ptr %10, align 8, !tbaa !45
  %21 = load i64, ptr %20, align 8, !tbaa !19
  %22 = icmp eq i64 %21, 0
  br i1 %22, label %23, label %25

23:                                               ; preds = %6
  %24 = load ptr, ptr %12, align 8, !tbaa !45
  store i64 0, ptr %24, align 8, !tbaa !19
  store i64 0, ptr %14, align 8, !tbaa !19
  br label %32

25:                                               ; preds = %6
  %26 = load ptr, ptr %9, align 8, !tbaa !43
  %27 = load ptr, ptr %26, align 8, !tbaa !15
  %28 = load ptr, ptr %10, align 8, !tbaa !45
  %29 = load i64, ptr %28, align 8, !tbaa !19
  %30 = load ptr, ptr %12, align 8, !tbaa !45
  %31 = call i64 @get_line(ptr noundef %27, i64 noundef %29, ptr noundef %30)
  store i64 %31, ptr %14, align 8, !tbaa !19
  br label %32

32:                                               ; preds = %25, %23
  br label %33

33:                                               ; preds = %127, %32
  %34 = load ptr, ptr %12, align 8, !tbaa !45
  %35 = load i64, ptr %34, align 8, !tbaa !19
  %36 = icmp eq i64 %35, 0
  br i1 %36, label %37, label %49

37:                                               ; preds = %33
  %38 = load i64, ptr %14, align 8, !tbaa !19
  %39 = load ptr, ptr %10, align 8, !tbaa !45
  %40 = load i64, ptr %39, align 8, !tbaa !19
  %41 = icmp eq i64 %38, %40
  br i1 %41, label %42, label %49

42:                                               ; preds = %37
  %43 = load i32, ptr %15, align 4, !tbaa !17
  %44 = icmp ne i32 %43, 0
  br i1 %44, label %49, label %45

45:                                               ; preds = %42
  %46 = load ptr, ptr %13, align 8, !tbaa !45
  %47 = load i64, ptr %46, align 8, !tbaa !19
  %48 = icmp ult i64 %47, 131072
  br label %49

49:                                               ; preds = %45, %42, %37, %33
  %50 = phi i1 [ false, %42 ], [ false, %37 ], [ false, %33 ], [ %48, %45 ]
  br i1 %50, label %51, label %128

51:                                               ; preds = %49
  call void @llvm.lifetime.start.p0(i64 8, ptr %16) #8
  %52 = load ptr, ptr %11, align 8, !tbaa !45
  %53 = load i64, ptr %52, align 8, !tbaa !19
  %54 = load ptr, ptr %10, align 8, !tbaa !45
  %55 = load i64, ptr %54, align 8, !tbaa !19
  %56 = sub nsw i64 %53, %55
  store i64 %56, ptr %16, align 8, !tbaa !19
  call void @llvm.lifetime.start.p0(i64 8, ptr %17) #8
  %57 = load ptr, ptr %11, align 8, !tbaa !45
  %58 = load i64, ptr %57, align 8, !tbaa !19
  %59 = add nsw i64 %58, 1023
  %60 = and i64 %59, 4294966272
  store i64 %60, ptr %17, align 8, !tbaa !19
  call void @llvm.lifetime.start.p0(i64 8, ptr %18) #8
  %61 = load i64, ptr %17, align 8, !tbaa !19
  %62 = load ptr, ptr %11, align 8, !tbaa !45
  %63 = load i64, ptr %62, align 8, !tbaa !19
  %64 = add i64 %63, 160
  %65 = icmp ult i64 %61, %64
  br i1 %65, label %66, label %69

66:                                               ; preds = %51
  %67 = load i64, ptr %17, align 8, !tbaa !19
  %68 = shl i64 %67, 1
  store i64 %68, ptr %17, align 8, !tbaa !19
  br label %69

69:                                               ; preds = %66, %51
  %70 = load ptr, ptr %8, align 8, !tbaa !13
  %71 = load i64, ptr %17, align 8, !tbaa !19
  %72 = load ptr, ptr %10, align 8, !tbaa !45
  %73 = call ptr @__archive_read_filter_ahead(ptr noundef %70, i64 noundef %71, ptr noundef %72)
  %74 = load ptr, ptr %9, align 8, !tbaa !43
  store ptr %73, ptr %74, align 8, !tbaa !15
  %75 = load ptr, ptr %9, align 8, !tbaa !43
  %76 = load ptr, ptr %75, align 8, !tbaa !15
  %77 = icmp eq ptr %76, null
  br i1 %77, label %78, label %92

78:                                               ; preds = %69
  %79 = load ptr, ptr %11, align 8, !tbaa !45
  %80 = load i64, ptr %79, align 8, !tbaa !19
  %81 = load ptr, ptr %10, align 8, !tbaa !45
  %82 = load i64, ptr %81, align 8, !tbaa !19
  %83 = icmp sge i64 %80, %82
  br i1 %83, label %84, label %85

84:                                               ; preds = %78
  store i64 0, ptr %7, align 8
  store i32 1, ptr %19, align 4
  br label %125

85:                                               ; preds = %78
  %86 = load ptr, ptr %8, align 8, !tbaa !13
  %87 = load ptr, ptr %10, align 8, !tbaa !45
  %88 = load i64, ptr %87, align 8, !tbaa !19
  %89 = load ptr, ptr %10, align 8, !tbaa !45
  %90 = call ptr @__archive_read_filter_ahead(ptr noundef %86, i64 noundef %88, ptr noundef %89)
  %91 = load ptr, ptr %9, align 8, !tbaa !43
  store ptr %90, ptr %91, align 8, !tbaa !15
  store i32 1, ptr %15, align 4, !tbaa !17
  br label %92

92:                                               ; preds = %85, %69
  %93 = load ptr, ptr %10, align 8, !tbaa !45
  %94 = load i64, ptr %93, align 8, !tbaa !19
  %95 = load ptr, ptr %13, align 8, !tbaa !45
  store i64 %94, ptr %95, align 8, !tbaa !19
  %96 = load ptr, ptr %10, align 8, !tbaa !45
  %97 = load i64, ptr %96, align 8, !tbaa !19
  %98 = load ptr, ptr %11, align 8, !tbaa !45
  store i64 %97, ptr %98, align 8, !tbaa !19
  %99 = load i64, ptr %16, align 8, !tbaa !19
  %100 = load ptr, ptr %9, align 8, !tbaa !43
  %101 = load ptr, ptr %100, align 8, !tbaa !15
  %102 = getelementptr inbounds i8, ptr %101, i64 %99
  store ptr %102, ptr %100, align 8, !tbaa !15
  %103 = load i64, ptr %16, align 8, !tbaa !19
  %104 = load ptr, ptr %10, align 8, !tbaa !45
  %105 = load i64, ptr %104, align 8, !tbaa !19
  %106 = sub nsw i64 %105, %103
  store i64 %106, ptr %104, align 8, !tbaa !19
  %107 = load i64, ptr %14, align 8, !tbaa !19
  store i64 %107, ptr %18, align 8, !tbaa !19
  %108 = load ptr, ptr %9, align 8, !tbaa !43
  %109 = load ptr, ptr %108, align 8, !tbaa !15
  %110 = load i64, ptr %18, align 8, !tbaa !19
  %111 = getelementptr inbounds i8, ptr %109, i64 %110
  %112 = load ptr, ptr %10, align 8, !tbaa !45
  %113 = load i64, ptr %112, align 8, !tbaa !19
  %114 = load i64, ptr %18, align 8, !tbaa !19
  %115 = sub nsw i64 %113, %114
  %116 = load ptr, ptr %12, align 8, !tbaa !45
  %117 = call i64 @get_line(ptr noundef %111, i64 noundef %115, ptr noundef %116)
  store i64 %117, ptr %14, align 8, !tbaa !19
  %118 = load i64, ptr %14, align 8, !tbaa !19
  %119 = icmp sge i64 %118, 0
  br i1 %119, label %120, label %124

120:                                              ; preds = %92
  %121 = load i64, ptr %18, align 8, !tbaa !19
  %122 = load i64, ptr %14, align 8, !tbaa !19
  %123 = add nsw i64 %122, %121
  store i64 %123, ptr %14, align 8, !tbaa !19
  br label %124

124:                                              ; preds = %120, %92
  store i32 0, ptr %19, align 4
  br label %125

125:                                              ; preds = %124, %84
  call void @llvm.lifetime.end.p0(i64 8, ptr %18) #8
  call void @llvm.lifetime.end.p0(i64 8, ptr %17) #8
  call void @llvm.lifetime.end.p0(i64 8, ptr %16) #8
  %126 = load i32, ptr %19, align 4
  switch i32 %126, label %130 [
    i32 0, label %127
  ]

127:                                              ; preds = %125
  br label %33, !llvm.loop !47

128:                                              ; preds = %49
  %129 = load i64, ptr %14, align 8, !tbaa !19
  store i64 %129, ptr %7, align 8
  store i32 1, ptr %19, align 4
  br label %130

130:                                              ; preds = %128, %125
  call void @llvm.lifetime.end.p0(i64 4, ptr %15) #8
  call void @llvm.lifetime.end.p0(i64 8, ptr %14) #8
  %131 = load i64, ptr %7, align 8
  ret i64 %131
}