; Function Attrs: nounwind uwtable
define internal fastcc i64 @bid_get_line(ptr noundef %0, ptr noundef nonnull captures(none) %1, ptr noundef nonnull %2, ptr noundef nonnull captures(none) %3, ptr noundef nonnull writeonly captures(none) %4, ptr noundef nonnull captures(none) %5) unnamed_addr #0 {
  %7 = load i64, ptr %2, align 8, !tbaa !9
  %8 = icmp eq i64 %7, 0
  br i1 %8, label %.lr.ph.preheader, label %9

9:                                                ; preds = %6
  %10 = icmp sgt i64 %7, 0
  br i1 %10, label %.lr.ph.i.preheader, label %.lr.ph.preheader

.lr.ph.i.preheader:                               ; preds = %9
  %11 = load ptr, ptr %1, align 8, !tbaa !4
  br label %.lr.ph.i

.lr.ph.i:                                         ; preds = %.lr.ph.i.preheader, %29
  %.034.i = phi i64 [ %.1.i, %29 ], [ 0, %.lr.ph.i.preheader ]
  %.02033.i = phi ptr [ %.121.i, %29 ], [ %11, %.lr.ph.i.preheader ]
  %12 = load i8, ptr %.02033.i, align 1, !tbaa !11
  %13 = zext i8 %12 to i64
  %14 = getelementptr inbounds nuw [256 x i8], ptr @ascii, i64 0, i64 %13
  %15 = load i8, ptr %14, align 1, !tbaa !11
  switch i8 %15, label %29 [
    i8 0, label %.lr.ph.preheader
    i8 13, label %16
    i8 10, label %.loopexit.i
    i8 1, label %26
  ]

16:                                               ; preds = %.lr.ph.i
  %17 = sub nsw i64 %7, %.034.i
  %18 = icmp sgt i64 %17, 1
  br i1 %18, label %19, label %.loopexit.i

19:                                               ; preds = %16
  %20 = getelementptr inbounds nuw i8, ptr %.02033.i, i64 1
  %21 = load i8, ptr %20, align 1, !tbaa !11
  %22 = icmp eq i8 %21, 10
  br i1 %22, label %23, label %.loopexit.i

23:                                               ; preds = %19
  store i64 2, ptr %4, align 8, !tbaa !9
  %24 = add nsw i64 %.034.i, 2
  br label %.critedge

.loopexit.i:                                      ; preds = %.lr.ph.i, %19, %16
  store i64 1, ptr %4, align 8, !tbaa !9
  %25 = add nsw i64 %.034.i, 1
  br label %.critedge

26:                                               ; preds = %.lr.ph.i
  %27 = getelementptr inbounds nuw i8, ptr %.02033.i, i64 1
  %28 = add nsw i64 %.034.i, 1
  br label %29

29:                                               ; preds = %26, %.lr.ph.i
  %.121.i = phi ptr [ %.02033.i, %.lr.ph.i ], [ %27, %26 ]
  %.1.i = phi i64 [ %.034.i, %.lr.ph.i ], [ %28, %26 ]
  %30 = icmp slt i64 %.1.i, %7
  br i1 %30, label %.lr.ph.i, label %.lr.ph.preheader, !llvm.loop !30

.lr.ph.preheader:                                 ; preds = %29, %.lr.ph.i, %9, %6
  %.049.ph = phi i64 [ 0, %6 ], [ %7, %9 ], [ -1, %.lr.ph.i ], [ %7, %29 ]
  store i64 0, ptr %4, align 8, !tbaa !9
  %31 = load i64, ptr %2, align 8, !tbaa !9
  %.not160 = icmp eq i64 %.049.ph, %31
  br i1 %.not160, label %.lr.ph156, label %.critedge

.lr.ph156:                                        ; preds = %.lr.ph.preheader, %.lr.ph.backedge
  %.15093155 = phi i64 [ %.15093.be, %.lr.ph.backedge ], [ %.049.ph, %.lr.ph.preheader ]
  %32 = load i64, ptr %5, align 8, !tbaa !9
  %33 = icmp ult i64 %32, 131072
  br i1 %33, label %34, label %.critedge

34:                                               ; preds = %.lr.ph156
  %35 = load i64, ptr %3, align 8, !tbaa !9
  %36 = sub nsw i64 %35, %.15093155
  %37 = add nsw i64 %35, 1023
  %38 = and i64 %37, 4294966272
  %39 = add i64 %35, 160
  %40 = icmp ult i64 %38, %39
  %41 = zext i1 %40 to i64
  %spec.select = shl nuw nsw i64 %38, %41
  %42 = tail call ptr @__archive_read_filter_ahead(ptr noundef %0, i64 noundef %spec.select, ptr noundef nonnull %2) #10
  store ptr %42, ptr %1, align 8, !tbaa !4
  %43 = icmp eq ptr %42, null
  br i1 %43, label %44, label %49

44:                                               ; preds = %34
  %45 = load i64, ptr %3, align 8, !tbaa !9
  %46 = load i64, ptr %2, align 8, !tbaa !9
  %.not = icmp slt i64 %45, %46
  br i1 %.not, label %47, label %.critedge

47:                                               ; preds = %44
  %48 = tail call ptr @__archive_read_filter_ahead(ptr noundef %0, i64 noundef %46, ptr noundef nonnull %2) #10
  br label %49

49:                                               ; preds = %47, %34
  %50 = phi ptr [ %48, %47 ], [ %42, %34 ]
  %51 = load i64, ptr %2, align 8, !tbaa !9
  store i64 %51, ptr %5, align 8, !tbaa !9
  store i64 %51, ptr %3, align 8, !tbaa !9
  %52 = getelementptr inbounds i8, ptr %50, i64 %36
  store ptr %52, ptr %1, align 8, !tbaa !4
  %53 = load i64, ptr %2, align 8, !tbaa !9
  %54 = sub nsw i64 %53, %36
  store i64 %54, ptr %2, align 8, !tbaa !9
  %55 = sub nsw i64 %54, %.15093155
  %.019.i64.fr = freeze i64 %55
  %56 = icmp sgt i64 %.019.i64.fr, 0
  br i1 %56, label %.lr.ph.i65.preheader, label %.loopexit

.lr.ph.i65.preheader:                             ; preds = %49
  %57 = getelementptr inbounds i8, ptr %50, i64 %35
  br label %.lr.ph.i65

.lr.ph.i65:                                       ; preds = %.lr.ph.i65.preheader, %72
  %.034.i66 = phi i64 [ %.1.i69, %72 ], [ 0, %.lr.ph.i65.preheader ]
  %.02033.i67 = phi ptr [ %.121.i68, %72 ], [ %57, %.lr.ph.i65.preheader ]
  %58 = load i8, ptr %.02033.i67, align 1, !tbaa !11
  %59 = zext i8 %58 to i64
  %60 = getelementptr inbounds nuw [256 x i8], ptr @ascii, i64 0, i64 %59
  %61 = load i8, ptr %60, align 1, !tbaa !11
  switch i8 %61, label %72 [
    i8 0, label %get_line.exit71.thread
    i8 13, label %62
    i8 10, label %.loopexit.i70
    i8 1, label %69
  ]

get_line.exit71.thread:                           ; preds = %.lr.ph.i65
  store i64 0, ptr %4, align 8, !tbaa !9
  br label %.lr.ph.backedge

62:                                               ; preds = %.lr.ph.i65
  %63 = sub nsw i64 %.019.i64.fr, %.034.i66
  %64 = icmp sgt i64 %63, 1
  br i1 %64, label %65, label %.loopexit.i70

65:                                               ; preds = %62
  %66 = getelementptr inbounds nuw i8, ptr %.02033.i67, i64 1
  %67 = load i8, ptr %66, align 1, !tbaa !11
  %68 = icmp eq i8 %67, 10
  br i1 %68, label %.thread, label %.loopexit.i70

.loopexit.i70:                                    ; preds = %.lr.ph.i65, %65, %62
  br label %.thread

69:                                               ; preds = %.lr.ph.i65
  %70 = getelementptr inbounds nuw i8, ptr %.02033.i67, i64 1
  %71 = add i64 %.034.i66, 1
  br label %72

72:                                               ; preds = %69, %.lr.ph.i65
  %.121.i68 = phi ptr [ %.02033.i67, %.lr.ph.i65 ], [ %70, %69 ]
  %.1.i69 = phi i64 [ %.034.i66, %.lr.ph.i65 ], [ %71, %69 ]
  %73 = icmp slt i64 %.1.i69, %.019.i64.fr
  br i1 %73, label %.lr.ph.i65, label %.loopexit, !llvm.loop !30

.thread:                                          ; preds = %65, %.loopexit.i70
  %.sink161 = phi i64 [ 1, %.loopexit.i70 ], [ 2, %65 ]
  store i64 %.sink161, ptr %4, align 8, !tbaa !9
  %74 = add i64 %.034.i66, %.sink161
  %75 = icmp slt i64 %74, 0
  %76 = select i1 %75, i64 0, i64 %.15093155
  %spec.select77118 = add nsw i64 %76, %74
  br label %.critedge

.loopexit:                                        ; preds = %72, %49
  store i64 0, ptr %4, align 8, !tbaa !9
  %77 = icmp slt i64 %.019.i64.fr, 0
  %78 = select i1 %77, i64 0, i64 %.15093155
  %spec.select77 = add nsw i64 %78, %.019.i64.fr
  br label %.lr.ph.backedge

.lr.ph.backedge:                                  ; preds = %.loopexit, %get_line.exit71.thread
  %.15093.be = phi i64 [ %spec.select77, %.loopexit ], [ -1, %get_line.exit71.thread ]
  %79 = load i64, ptr %2, align 8, !tbaa !9
  %80 = icmp ne i64 %.15093.be, %79
  %or.cond = or i1 %43, %80
  br i1 %or.cond, label %.critedge, label %.lr.ph156, !llvm.loop !31

.critedge:                                        ; preds = %44, %.lr.ph156, %.lr.ph.backedge, %.lr.ph.preheader, %.thread, %23, %.loopexit.i
  %.2 = phi i64 [ %25, %.loopexit.i ], [ %24, %23 ], [ %spec.select77118, %.thread ], [ %.049.ph, %.lr.ph.preheader ], [ %.15093.be, %.lr.ph.backedge ], [ %.15093155, %.lr.ph156 ], [ 0, %44 ]
  ret i64 %.2
}